target datalayout = "e-m:e-p270:32:32-p271:32:32-p272:64:64-i64:64-i128:128-f80:128-n8:16:32:64-S128"
target triple = "x86_64-pc-linux-gnu"

%class.cmCursesPathWidget = type { %class.cmCursesStringWidget.base, %"class.std::__cxx11::basic_string", %"class.std::__cxx11::basic_string", i8, i64 }
%class.cmCursesStringWidget.base = type <{ %class.cmCursesWidget.base, i8, [3 x i8], %"class.std::__cxx11::basic_string", i8 }>
%class.cmCursesWidget.base = type <{ ptr, i32, [4 x i8], %"class.std::__cxx11::basic_string", ptr, i32 }>
%"class.std::__cxx11::basic_string" = type { %"struct.std::__cxx11::basic_string<char>::_Alloc_hider", i64, %union.anon }
%"struct.std::__cxx11::basic_string<char>::_Alloc_hider" = type { ptr }
%union.anon = type { i64, [8 x i8] }
%class.cmCursesWidget = type <{ ptr, i32, [4 x i8], %"class.std::__cxx11::basic_string", ptr, i32, [4 x i8] }>
%class.cmCursesStringWidget = type <{ %class.cmCursesWidget.base, i8, [3 x i8], %"class.std::__cxx11::basic_string", i8, [7 x i8] }>

@_ZTV20cmCursesStringWidget = external unnamed_addr constant { [12 x ptr] }, align 8

; Function Attrs: mustprogress nounwind uwtable
define linkonce_odr dso_local void @_ZN20cmCursesStringWidgetD2Ev(ptr noundef nonnull align 8 dereferenceable(97) %0) unnamed_addr #5 comdat align 2 {
  %2 = alloca ptr, align 8
  store ptr %0, ptr %2, align 8
  %3 = load ptr, ptr %2, align 8
  store ptr getelementptr inbounds ({ [12 x ptr] }, ptr @_ZTV20cmCursesStringWidget, i32 0, i32 0, i32 2), ptr %3, align 8
  %4 = getelementptr inbounds %class.cmCursesStringWidget, ptr %3, i32 0, i32 3
  call void @_ZNSt7__cxx1112basic_stringIcSt11char_traitsIcESaIcEED1Ev(ptr noundef nonnull align 8 dereferenceable(32) %4) #3
  call void @_ZN14cmCursesWidgetD2Ev(ptr noundef nonnull align 8 dereferenceable(60) %3) #3
  ret void
}

; Function Attrs: mustprogress uwtable
define dso_local void @_ZN18cmCursesPathWidgetC2Eiiii(ptr noundef nonnull align 8 dereferenceable(184) %0, i32 noundef %1, i32 noundef %2, i32 noundef %3, i32 noundef %4) unnamed_addr #4 align 2 personality ptr @__gxx_personality_v0 {
  %6 = alloca ptr, align 8
  %7 = alloca i32, align 4
  %8 = alloca i32, align 4
  %9 = alloca i32, align 4
  %10 = alloca i32, align 4
  %11 = alloca ptr, align 8
  %12 = alloca i32, align 4
  store ptr %0, ptr %6, align 8
  store i32 %1, ptr %7, align 4
  store i32 %2, ptr %8, align 4
  store i32 %3, ptr %9, align 4
  store i32 %4, ptr %10, align 4
  %13 = load ptr, ptr %6, align 8
  %14 = load i32, ptr %7, align 4
  %15 = load i32, ptr %8, align 4
  %16 = load i32, ptr %9, align 4
  %17 = load i32, ptr %10, align 4
  call void @_ZN20cmCursesStringWidgetC2Eiiii(ptr noundef nonnull align 8 dereferenceable(97) %13, i32 noundef %14, i32 noundef %15, i32 noundef %16, i32 noundef %17)
  store ptr getelementptr inbounds ({ [12 x ptr] }, ptr @_ZTV18cmCursesPathWidget, i32 0, i32 0, i32 2), ptr %13, align 8
  %18 = getelementptr inbounds %class.cmCursesPathWidget, ptr %13, i32 0, i32 1
  call void @_ZNSt7__cxx1112basic_stringIcSt11char_traitsIcESaIcEEC1Ev(ptr noundef nonnull align 8 dereferenceable(32) %18) #3
  %19 = getelementptr inbounds %class.cmCursesPathWidget, ptr %13, i32 0, i32 2
  call void @_ZNSt7__cxx1112basic_stringIcSt11char_traitsIcESaIcEEC1Ev(ptr noundef nonnull align 8 dereferenceable(32) %19) #3
  %20 = getelementptr inbounds %class.cmCursesWidget, ptr %13, i32 0, i32 1
  store i32 1, ptr %20, align 8
  %21 = getelementptr inbounds %class.cmCursesPathWidget, ptr %13, i32 0, i32 3
  store i8 0, ptr %21, align 8
  %22 = getelementptr inbounds %class.cmCursesPathWidget, ptr %13, i32 0, i32 4
  store i64 0, ptr %22, align 8
  %23 = invoke noundef zeroext i1 @_ZN13cmCursesColor9HasColorsEv()
          to label %24 unwind label %34

24:                                               ; preds = %5
  br i1 %23, label %25, label %38

25:                                               ; preds = %24
  %26 = getelementptr inbounds %class.cmCursesWidget, ptr %13, i32 0, i32 4
  %27 = load ptr, ptr %26, align 8
  %28 = invoke i32 @set_field_fore(ptr noundef %27, i32 noundef 1024)
          to label %29 unwind label %34

29:                                               ; preds = %25
  %30 = getelementptr inbounds %class.cmCursesWidget, ptr %13, i32 0, i32 4
  %31 = load ptr, ptr %30, align 8
  %32 = invoke i32 @set_field_back(ptr noundef %31, i32 noundef 1024)
          to label %33 unwind label %34

33:                                               ; preds = %29
  br label %47

34:                                               ; preds = %42, %38, %29, %25, %5
  %35 = landingpad { ptr, i32 }
          cleanup
  %36 = extractvalue { ptr, i32 } %35, 0
  store ptr %36, ptr %11, align 8
  %37 = extractvalue { ptr, i32 } %35, 1
  store i32 %37, ptr %12, align 4
  call void @_ZNSt7__cxx1112basic_stringIcSt11char_traitsIcESaIcEED1Ev(ptr noundef nonnull align 8 dereferenceable(32) %19) #3
  call void @_ZNSt7__cxx1112basic_stringIcSt11char_traitsIcESaIcEED1Ev(ptr noundef nonnull align 8 dereferenceable(32) %18) #3
  call void @_ZN20cmCursesStringWidgetD2Ev(ptr noundef nonnull align 8 dereferenceable(97) %13) #3
  br label %48

38:                                               ; preds = %24
  %39 = getelementptr inbounds %class.cmCursesWidget, ptr %13, i32 0, i32 4
  %40 = load ptr, ptr %39, align 8
  %41 = invoke i32 @set_field_fore(ptr noundef %40, i32 noundef 0)
          to label %42 unwind label %34

42:                                               ; preds = %38
  %43 = getelementptr inbounds %class.cmCursesWidget, ptr %13, i32 0, i32 4
  %44 = load ptr, ptr %43, align 8
  %45 = invoke i32 @set_field_back(ptr noundef %44, i32 noundef 65536)
          to label %46 unwind label %34

46:                                               ; preds = %42
  br label %47

47:                                               ; preds = %46, %33
  ret void

48:                                               ; preds = %34
  %49 = load ptr, ptr %11, align 8
  %50 = load i32, ptr %12, align 4
  %51 = insertvalue { ptr, i32 } poison, ptr %49, 0
  %52 = insertvalue { ptr, i32 } %51, i32 %50, 1
  resume { ptr, i32 } %52
}