; Function Attrs: mustprogress uwtable
define dso_local void @_ZN18cmCursesPathWidgetC2Eiiii(ptr noundef nonnull align 8 dereferenceable(184) %0, i32 noundef %1, i32 noundef %2, i32 noundef %3, i32 noundef %4) unnamed_addr #3 align 2 personality ptr @__gxx_personality_v0 {
  tail call void @_ZN20cmCursesStringWidgetC2Eiiii(ptr noundef nonnull align 8 dereferenceable(97) %0, i32 noundef %1, i32 noundef %2, i32 noundef %3, i32 noundef %4)
  store ptr getelementptr inbounds ({ [12 x ptr] }, ptr @_ZTV18cmCursesPathWidget, i64 0, i32 0, i64 2), ptr %0, align 8
  %6 = getelementptr inbounds i8, ptr %0, i64 104
  tail call void @_ZNSt7__cxx1112basic_stringIcSt11char_traitsIcESaIcEEC1Ev(ptr noundef nonnull align 8 dereferenceable(32) %6) #12
  %7 = getelementptr inbounds i8, ptr %0, i64 136
  tail call void @_ZNSt7__cxx1112basic_stringIcSt11char_traitsIcESaIcEEC1Ev(ptr noundef nonnull align 8 dereferenceable(32) %7) #12
  %8 = getelementptr inbounds i8, ptr %0, i64 8
  store i32 1, ptr %8, align 8
  %9 = getelementptr inbounds i8, ptr %0, i64 168
  store i8 0, ptr %9, align 8
  %10 = getelementptr inbounds i8, ptr %0, i64 176
  store i64 0, ptr %10, align 8
  %11 = invoke noundef zeroext i1 @_ZN13cmCursesColor9HasColorsEv()
          to label %12 unwind label %17

12:                                               ; preds = %5
  %13 = getelementptr inbounds i8, ptr %0, i64 48
  %14 = load ptr, ptr %13, align 8
  br i1 %11, label %15, label %20

15:                                               ; preds = %12
  %16 = invoke i32 @set_field_fore(ptr noundef %14, i32 noundef 1024)
          to label %.invoke unwind label %17

17:                                               ; preds = %.invoke, %20, %15, %5
  %18 = landingpad { ptr, i32 }
          cleanup
  tail call void @_ZNSt7__cxx1112basic_stringIcSt11char_traitsIcESaIcEED1Ev(ptr noundef nonnull align 8 dereferenceable(32) %7) #12
  tail call void @_ZNSt7__cxx1112basic_stringIcSt11char_traitsIcESaIcEED1Ev(ptr noundef nonnull align 8 dereferenceable(32) %6) #12
  store ptr getelementptr inbounds ({ [12 x ptr] }, ptr @_ZTV20cmCursesStringWidget, i64 0, i32 0, i64 2), ptr %0, align 8
  %19 = getelementptr inbounds i8, ptr %0, i64 64
  tail call void @_ZNSt7__cxx1112basic_stringIcSt11char_traitsIcESaIcEED1Ev(ptr noundef nonnull align 8 dereferenceable(32) %19) #12
  tail call void @_ZN14cmCursesWidgetD2Ev(ptr noundef nonnull align 8 dereferenceable(60) %0) #12
  resume { ptr, i32 } %18

20:                                               ; preds = %12
  %21 = invoke i32 @set_field_fore(ptr noundef %14, i32 noundef 0)
          to label %.invoke unwind label %17

.invoke:                                          ; preds = %20, %15
  %22 = phi i32 [ 1024, %15 ], [ 65536, %20 ]
  %23 = load ptr, ptr %13, align 8
  %24 = invoke i32 @set_field_back(ptr noundef %23, i32 noundef %22)
          to label %25 unwind label %17

25:                                               ; preds = %.invoke
  ret void
}